; Function Attrs: mustprogress nounwind uwtable
define internal fastcc noundef zeroext i1 @_ZN5clang19RecursiveASTVisitorIN12_GLOBAL__N_118PropertiesRewriter13PlusOneAssignEE33TraverseDependentAddressSpaceTypeEPNS_25DependentAddressSpaceTypeE(ptr noundef nonnull align 1 dereferenceable(1) %0, ptr nocapture noundef readonly %1) unnamed_addr #0 align 2 {
  %3 = getelementptr inbounds nuw i8, ptr %1, i64 32
  %4 = load ptr, ptr %3, align 16
  %5 = tail call fastcc noundef zeroext i1 @_ZN5clang19RecursiveASTVisitorIN12_GLOBAL__N_118PropertiesRewriter13PlusOneAssignEE12TraverseStmtEPNS_4StmtEPN4llvm15SmallVectorImplINS7_14PointerIntPairIS6_Lj1EbNS7_21PointerLikeTypeTraitsIS6_EENS7_18PointerIntPairInfoIS6_Lj1ESB_EEEEEE(ptr noundef nonnull align 1 dereferenceable(1) %0, ptr noundef %4, ptr noundef null)
  br i1 %5, label %6, label %9

6:                                                ; preds = %2
  %7 = getelementptr inbounds nuw i8, ptr %1, i64 40
  %.sroa.0.0.copyload.i = load i64, ptr %7, align 8
  %8 = tail call fastcc noundef zeroext i1 @_ZN5clang19RecursiveASTVisitorIN12_GLOBAL__N_118PropertiesRewriter13PlusOneAssignEE12TraverseTypeENS_8QualTypeE(ptr noundef nonnull align 1 dereferenceable(1) %0, i64 %.sroa.0.0.copyload.i)
  br label %9

9:                                                ; preds = %6, %2
  %.0 = phi i1 [ false, %2 ], [ %8, %6 ]
  ret i1 %.0
}